; Function Attrs: nounwind uwtable
define hidden range(i32 -2147483647, -2147483648) i32 @uv__stream_open(ptr noundef captures(none) %0, i32 noundef %1, i32 noundef %2) local_unnamed_addr #0 {
  %4 = getelementptr inbounds nuw i8, ptr %0, i64 184
  %5 = load i32, ptr %4, align 8
  %6 = icmp eq i32 %5, -1
  %7 = icmp eq i32 %5, %1
  %or.cond = or i1 %6, %7
  br i1 %or.cond, label %8, label %33

8:                                                ; preds = %3
  %9 = getelementptr inbounds nuw i8, ptr %0, i64 88
  %10 = load i32, ptr %9, align 8
  %11 = or i32 %10, %2
  store i32 %11, ptr %9, align 8
  %12 = getelementptr inbounds nuw i8, ptr %0, i64 16
  %13 = load i32, ptr %12, align 8
  %14 = icmp eq i32 %13, 12
  br i1 %14, label %15, label %32

15:                                               ; preds = %8
  %16 = and i32 %11, 16777216
  %.not = icmp eq i32 %16, 0
  br i1 %.not, label %23, label %17

17:                                               ; preds = %15
  %18 = tail call i32 @uv__tcp_nodelay(i32 noundef %1, i32 noundef 1) #12
  %.not13 = icmp eq i32 %18, 0
  br i1 %.not13, label %._crit_edge, label %19

._crit_edge:                                      ; preds = %17
  %.pre = load i32, ptr %9, align 8
  br label %23

19:                                               ; preds = %17
  %20 = tail call ptr @__errno_location() #13
  %21 = load i32, ptr %20, align 4
  %22 = sub nsw i32 0, %21
  br label %33

23:                                               ; preds = %._crit_edge, %15
  %24 = phi i32 [ %.pre, %._crit_edge ], [ %11, %15 ]
  %25 = and i32 %24, 33554432
  %.not14 = icmp eq i32 %25, 0
  br i1 %.not14, label %32, label %26

26:                                               ; preds = %23
  %27 = tail call i32 @uv__tcp_keepalive(i32 noundef %1, i32 noundef 1, i32 noundef 60) #12
  %.not15 = icmp eq i32 %27, 0
  br i1 %.not15, label %32, label %28

28:                                               ; preds = %26
  %29 = tail call ptr @__errno_location() #13
  %30 = load i32, ptr %29, align 4
  %31 = sub nsw i32 0, %30
  br label %33

32:                                               ; preds = %23, %26, %8
  store i32 %1, ptr %4, align 8
  br label %33

33:                                               ; preds = %3, %32, %28, %19
  %.0 = phi i32 [ %22, %19 ], [ %31, %28 ], [ 0, %32 ], [ -16, %3 ]
  ret i32 %.0
}